target datalayout = "e-m:e-p270:32:32-p271:32:32-p272:64:64-i64:64-i128:128-f80:128-n8:16:32:64-S128"
target triple = "x86_64-pc-linux-gnu"

%"struct.std::__1::to_chars_result" = type { ptr, i32 }

@.str = private unnamed_addr constant [4 x i8] c"inf\00", align 1
@.str.1 = private unnamed_addr constant [9 x i8] c"nan(ind)\00", align 1
@.str.2 = private unnamed_addr constant [4 x i8] c"nan\00", align 1
@.str.3 = private unnamed_addr constant [10 x i8] c"nan(snan)\00", align 1

; Function Attrs: mustprogress nounwind uwtable
define linkonce_odr hidden { ptr, i32 } @_ZNSt3__122_Floating_to_chars_ryuB8ne210000IfEENS_15to_chars_resultEPcS2_T_NS_12chars_formatE(ptr noundef %0, ptr noundef %1, float noundef %2, i32 noundef %3) #4 comdat personality ptr @__gxx_personality_v0 {
  %5 = alloca %"struct.std::__1::to_chars_result", align 8
  %6 = alloca ptr, align 8
  %7 = alloca ptr, align 8
  %8 = alloca float, align 4
  %9 = alloca i32, align 4
  store ptr %0, ptr %6, align 8, !tbaa !4
  store ptr %1, ptr %7, align 8, !tbaa !4
  store float %2, ptr %8, align 4, !tbaa !46
  store i32 %3, ptr %9, align 4, !tbaa !33
  %10 = load ptr, ptr %6, align 8, !tbaa !4
  %11 = load ptr, ptr %7, align 8, !tbaa !4
  %12 = load float, ptr %8, align 4, !tbaa !46
  %13 = load i32, ptr %9, align 4, !tbaa !33
  %14 = invoke { ptr, i32 } @_ZNSt3__116__f2s_buffered_nB8ne210000EPcS0_fNS_12chars_formatE(ptr noundef %10, ptr noundef %11, float noundef %12, i32 noundef %13)
          to label %15 unwind label %21

15:                                               ; preds = %4
  %16 = getelementptr inbounds nuw { ptr, i32 }, ptr %5, i32 0, i32 0
  %17 = extractvalue { ptr, i32 } %14, 0
  store ptr %17, ptr %16, align 8
  %18 = getelementptr inbounds nuw { ptr, i32 }, ptr %5, i32 0, i32 1
  %19 = extractvalue { ptr, i32 } %14, 1
  store i32 %19, ptr %18, align 8
  %20 = load { ptr, i32 }, ptr %5, align 8
  ret { ptr, i32 } %20

21:                                               ; preds = %4
  %22 = landingpad { ptr, i32 }
          catch ptr null
  %23 = extractvalue { ptr, i32 } %22, 0
  call void @__clang_call_terminate(ptr %23) #17
  unreachable
}

; Function Attrs: mustprogress nounwind uwtable
define linkonce_odr hidden noundef float @_ZNSt3__18bit_castB8ne210000IfjQaaaaeqstT_stT0_23is_trivially_copyable_vIS1_E23is_trivially_copyable_vIS2_EEES1_RKS2_(ptr noundef nonnull align 4 dereferenceable(4) %0) #4 comdat {
  %2 = alloca ptr, align 8
  store ptr %0, ptr %2, align 8, !tbaa !22
  %3 = load ptr, ptr %2, align 8, !tbaa !22
  %4 = load float, ptr %3, align 4, !tbaa !11
  ret float %4
}

; Function Attrs: mustprogress nounwind uwtable
define linkonce_odr hidden noundef i32 @_ZNSt3__18bit_castB8ne210000IjfQaaaaeqstT_stT0_23is_trivially_copyable_vIS1_E23is_trivially_copyable_vIS2_EEES1_RKS2_(ptr noundef nonnull align 4 dereferenceable(4) %0) #4 comdat {
  %2 = alloca ptr, align 8
  store ptr %0, ptr %2, align 8, !tbaa !74
  %3 = load ptr, ptr %2, align 8, !tbaa !74
  %4 = load i32, ptr %3, align 4, !tbaa !11
  ret i32 %4
}

; Function Attrs: mustprogress nounwind uwtable
define linkonce_odr hidden { ptr, i32 } @_ZNSt3__118_Floating_to_charsB8ne210000ILNS_27_Floating_to_chars_overloadE1EfEENS_15to_chars_resultEPcS3_T0_NS_12chars_formatEi(ptr noundef %0, ptr noundef %1, float noundef %2, i32 noundef %3, i32 noundef %4) #4 comdat {
  %6 = alloca %"struct.std::__1::to_chars_result", align 8
  %7 = alloca ptr, align 8
  %8 = alloca ptr, align 8
  %9 = alloca float, align 4
  %10 = alloca i32, align 4
  %11 = alloca i32, align 4
  %12 = alloca i32, align 4
  %13 = alloca i8, align 1
  %14 = alloca i32, align 4
  %15 = alloca ptr, align 8
  %16 = alloca i64, align 8
  %17 = alloca i32, align 4
  store ptr %0, ptr %7, align 8, !tbaa !4
  store ptr %1, ptr %8, align 8, !tbaa !4
  store float %2, ptr %9, align 4, !tbaa !46
  store i32 %3, ptr %10, align 4, !tbaa !33
  store i32 %4, ptr %11, align 4, !tbaa !21
  call void @llvm.lifetime.start.p0(i64 4, ptr %12) #15
  %18 = call noundef i32 @_ZNSt3__18bit_castB8ne210000IjfQaaaaeqstT_stT0_23is_trivially_copyable_vIS1_E23is_trivially_copyable_vIS2_EEES1_RKS2_(ptr noundef nonnull align 4 dereferenceable(4) %9) #15
  store i32 %18, ptr %12, align 4, !tbaa !21
  call void @llvm.lifetime.start.p0(i64 1, ptr %13) #15
  %19 = load i32, ptr %12, align 4, !tbaa !21
  %20 = and i32 %19, -2147483648
  %21 = icmp ne i32 %20, 0
  %22 = zext i1 %21 to i8
  store i8 %22, ptr %13, align 1, !tbaa !28
  %23 = load i8, ptr %13, align 1, !tbaa !28, !range !29, !noundef !30
  %24 = trunc i8 %23 to i1
  br i1 %24, label %25, label %39

25:                                               ; preds = %5
  %26 = load ptr, ptr %7, align 8, !tbaa !4
  %27 = load ptr, ptr %8, align 8, !tbaa !4
  %28 = icmp eq ptr %26, %27
  br i1 %28, label %29, label %33

29:                                               ; preds = %25
  %30 = getelementptr inbounds nuw %"struct.std::__1::to_chars_result", ptr %6, i32 0, i32 0
  %31 = load ptr, ptr %8, align 8, !tbaa !4
  store ptr %31, ptr %30, align 8, !tbaa !47
  %32 = getelementptr inbounds nuw %"struct.std::__1::to_chars_result", ptr %6, i32 0, i32 1
  store i32 75, ptr %32, align 8, !tbaa !49
  store i32 1, ptr %14, align 4
  br label %108

33:                                               ; preds = %25
  %34 = load ptr, ptr %7, align 8, !tbaa !4
  %35 = getelementptr inbounds nuw i8, ptr %34, i32 1
  store ptr %35, ptr %7, align 8, !tbaa !4
  store i8 45, ptr %34, align 1, !tbaa !11
  %36 = load i32, ptr %12, align 4, !tbaa !21
  %37 = and i32 %36, 2147483647
  store i32 %37, ptr %12, align 4, !tbaa !21
  %38 = call noundef float @_ZNSt3__18bit_castB8ne210000IfjQaaaaeqstT_stT0_23is_trivially_copyable_vIS1_E23is_trivially_copyable_vIS2_EEES1_RKS2_(ptr noundef nonnull align 4 dereferenceable(4) %12) #15
  store float %38, ptr %9, align 4, !tbaa !46
  br label %39

39:                                               ; preds = %33, %5
  %40 = load i32, ptr %12, align 4, !tbaa !21
  %41 = and i32 %40, 2139095040
  %42 = icmp eq i32 %41, 2139095040
  br i1 %42, label %43, label %86

43:                                               ; preds = %39
  call void @llvm.lifetime.start.p0(i64 8, ptr %15) #15
  call void @llvm.lifetime.start.p0(i64 8, ptr %16) #15
  call void @llvm.lifetime.start.p0(i64 4, ptr %17) #15
  %44 = load i32, ptr %12, align 4, !tbaa !21
  %45 = and i32 %44, 8388607
  store i32 %45, ptr %17, align 4, !tbaa !21
  %46 = load i32, ptr %17, align 4, !tbaa !21
  %47 = icmp eq i32 %46, 0
  br i1 %47, label %48, label %49

48:                                               ; preds = %43
  store ptr @.str, ptr %15, align 8, !tbaa !4
  store i64 3, ptr %16, align 8, !tbaa !9
  br label %64

49:                                               ; preds = %43
  %50 = load i8, ptr %13, align 1, !tbaa !28, !range !29, !noundef !30
  %51 = trunc i8 %50 to i1
  br i1 %51, label %52, label %56

52:                                               ; preds = %49
  %53 = load i32, ptr %17, align 4, !tbaa !21
  %54 = icmp eq i32 %53, 4194304
  br i1 %54, label %55, label %56

55:                                               ; preds = %52
  store ptr @.str.1, ptr %15, align 8, !tbaa !4
  store i64 8, ptr %16, align 8, !tbaa !9
  br label %63

56:                                               ; preds = %52, %49
  %57 = load i32, ptr %17, align 4, !tbaa !21
  %58 = and i32 %57, 4194304
  %59 = icmp ne i32 %58, 0
  br i1 %59, label %60, label %61

60:                                               ; preds = %56
  store ptr @.str.2, ptr %15, align 8, !tbaa !4
  store i64 3, ptr %16, align 8, !tbaa !9
  br label %62

61:                                               ; preds = %56
  store ptr @.str.3, ptr %15, align 8, !tbaa !4
  store i64 9, ptr %16, align 8, !tbaa !9
  br label %62

62:                                               ; preds = %61, %60
  br label %63

63:                                               ; preds = %62, %55
  br label %64

64:                                               ; preds = %63, %48
  %65 = load ptr, ptr %8, align 8, !tbaa !4
  %66 = load ptr, ptr %7, align 8, !tbaa !4
  %67 = ptrtoint ptr %65 to i64
  %68 = ptrtoint ptr %66 to i64
  %69 = sub i64 %67, %68
  %70 = load i64, ptr %16, align 8, !tbaa !9
  %71 = icmp slt i64 %69, %70
  br i1 %71, label %72, label %76

72:                                               ; preds = %64
  %73 = getelementptr inbounds nuw %"struct.std::__1::to_chars_result", ptr %6, i32 0, i32 0
  %74 = load ptr, ptr %8, align 8, !tbaa !4
  store ptr %74, ptr %73, align 8, !tbaa !47
  %75 = getelementptr inbounds nuw %"struct.std::__1::to_chars_result", ptr %6, i32 0, i32 1
  store i32 75, ptr %75, align 8, !tbaa !49
  store i32 1, ptr %14, align 4
  br label %85

76:                                               ; preds = %64
  %77 = load ptr, ptr %7, align 8, !tbaa !4
  %78 = load ptr, ptr %15, align 8, !tbaa !4
  %79 = load i64, ptr %16, align 8, !tbaa !9
  call void @llvm.memcpy.p0.p0.i64(ptr align 1 %77, ptr align 1 %78, i64 %79, i1 false)
  %80 = getelementptr inbounds nuw %"struct.std::__1::to_chars_result", ptr %6, i32 0, i32 0
  %81 = load ptr, ptr %7, align 8, !tbaa !4
  %82 = load i64, ptr %16, align 8, !tbaa !9
  %83 = getelementptr inbounds nuw i8, ptr %81, i64 %82
  store ptr %83, ptr %80, align 8, !tbaa !47
  %84 = getelementptr inbounds nuw %"struct.std::__1::to_chars_result", ptr %6, i32 0, i32 1
  store i32 0, ptr %84, align 8, !tbaa !49
  store i32 1, ptr %14, align 4
  br label %85

85:                                               ; preds = %76, %72
  call void @llvm.lifetime.end.p0(i64 4, ptr %17) #15
  call void @llvm.lifetime.end.p0(i64 8, ptr %16) #15
  call void @llvm.lifetime.end.p0(i64 8, ptr %15) #15
  br label %108

86:                                               ; preds = %39
  %87 = load i32, ptr %10, align 4, !tbaa !33
  %88 = icmp eq i32 %87, 4
  br i1 %88, label %89, label %98

89:                                               ; preds = %86
  %90 = load ptr, ptr %7, align 8, !tbaa !4
  %91 = load ptr, ptr %8, align 8, !tbaa !4
  %92 = load float, ptr %9, align 4, !tbaa !46
  %93 = call { ptr, i32 } @_ZNSt3__131_Floating_to_chars_hex_shortestB8ne210000IfEENS_15to_chars_resultEPcS2_T_(ptr noundef %90, ptr noundef %91, float noundef %92) #15
  %94 = getelementptr inbounds nuw { ptr, i32 }, ptr %6, i32 0, i32 0
  %95 = extractvalue { ptr, i32 } %93, 0
  store ptr %95, ptr %94, align 8
  %96 = getelementptr inbounds nuw { ptr, i32 }, ptr %6, i32 0, i32 1
  %97 = extractvalue { ptr, i32 } %93, 1
  store i32 %97, ptr %96, align 8
  store i32 1, ptr %14, align 4
  br label %108

98:                                               ; preds = %86
  %99 = load ptr, ptr %7, align 8, !tbaa !4
  %100 = load ptr, ptr %8, align 8, !tbaa !4
  %101 = load float, ptr %9, align 4, !tbaa !46
  %102 = load i32, ptr %10, align 4, !tbaa !33
  %103 = call { ptr, i32 } @_ZNSt3__122_Floating_to_chars_ryuB8ne210000IfEENS_15to_chars_resultEPcS2_T_NS_12chars_formatE(ptr noundef %99, ptr noundef %100, float noundef %101, i32 noundef %102) #15
  %104 = getelementptr inbounds nuw { ptr, i32 }, ptr %6, i32 0, i32 0
  %105 = extractvalue { ptr, i32 } %103, 0
  store ptr %105, ptr %104, align 8
  %106 = getelementptr inbounds nuw { ptr, i32 }, ptr %6, i32 0, i32 1
  %107 = extractvalue { ptr, i32 } %103, 1
  store i32 %107, ptr %106, align 8
  store i32 1, ptr %14, align 4
  br label %108

108:                                              ; preds = %98, %89, %85, %29
  call void @llvm.lifetime.end.p0(i64 1, ptr %13) #15
  call void @llvm.lifetime.end.p0(i64 4, ptr %12) #15
  %109 = load { ptr, i32 }, ptr %6, align 8
  ret { ptr, i32 } %109
}

; Function Attrs: mustprogress nounwind uwtable
define dso_local { ptr, i32 } @_ZNSt3__18to_charsEPcS0_fNS_12chars_formatE(ptr noundef %0, ptr noundef %1, float noundef %2, i32 noundef %3) #4 {
  %5 = alloca %"struct.std::__1::to_chars_result", align 8
  %6 = alloca ptr, align 8
  %7 = alloca ptr, align 8
  %8 = alloca float, align 4
  %9 = alloca i32, align 4
  store ptr %0, ptr %6, align 8, !tbaa !4
  store ptr %1, ptr %7, align 8, !tbaa !4
  store float %2, ptr %8, align 4, !tbaa !46
  store i32 %3, ptr %9, align 4, !tbaa !33
  %10 = load ptr, ptr %6, align 8, !tbaa !4
  %11 = load ptr, ptr %7, align 8, !tbaa !4
  %12 = load float, ptr %8, align 4, !tbaa !46
  %13 = load i32, ptr %9, align 4, !tbaa !33
  %14 = call { ptr, i32 } @_ZNSt3__118_Floating_to_charsB8ne210000ILNS_27_Floating_to_chars_overloadE1EfEENS_15to_chars_resultEPcS3_T0_NS_12chars_formatEi(ptr noundef %10, ptr noundef %11, float noundef %12, i32 noundef %13, i32 noundef 0) #15
  %15 = getelementptr inbounds nuw { ptr, i32 }, ptr %5, i32 0, i32 0
  %16 = extractvalue { ptr, i32 } %14, 0
  store ptr %16, ptr %15, align 8
  %17 = getelementptr inbounds nuw { ptr, i32 }, ptr %5, i32 0, i32 1
  %18 = extractvalue { ptr, i32 } %14, 1
  store i32 %18, ptr %17, align 8
  %19 = load { ptr, i32 }, ptr %5, align 8
  ret { ptr, i32 } %19
}