; Function Attrs: mustprogress nounwind uwtable
define dso_local { ptr, i32 } @_ZNSt3__18to_charsEPcS0_fNS_12chars_formatE(ptr noundef %0, ptr noundef %1, float noundef %2, i32 noundef %3) local_unnamed_addr #4 personality ptr @__gxx_personality_v0 {
  %5 = bitcast float %2 to i32
  %6 = icmp slt i32 %5, 0
  br i1 %6, label %7, label %16

7:                                                ; preds = %4
  %8 = icmp eq ptr %0, %1
  br i1 %8, label %9, label %12

9:                                                ; preds = %7
  %10 = insertvalue { ptr, i32 } poison, ptr %1, 0
  %11 = insertvalue { ptr, i32 } %10, i32 75, 1
  br label %_ZNSt3__118_Floating_to_charsB8ne210000ILNS_27_Floating_to_chars_overloadE1EfEENS_15to_chars_resultEPcS3_T0_NS_12chars_formatEi.exit

12:                                               ; preds = %7
  %13 = getelementptr inbounds nuw i8, ptr %0, i64 1
  store i8 45, ptr %0, align 1, !tbaa !4
  %14 = tail call float @llvm.fabs.f32(float %2)
  %15 = bitcast float %14 to i32
  br label %16

16:                                               ; preds = %12, %4
  %.035.i = phi float [ %14, %12 ], [ %2, %4 ]
  %.034.i = phi i32 [ %15, %12 ], [ %5, %4 ]
  %.025.i = phi ptr [ %13, %12 ], [ %0, %4 ]
  %17 = and i32 %.034.i, 2139095040
  %18 = icmp eq i32 %17, 2139095040
  br i1 %18, label %19, label %36

19:                                               ; preds = %16
  %20 = and i32 %.034.i, 8388607
  %21 = icmp eq i32 %20, 0
  br i1 %21, label %26, label %22

22:                                               ; preds = %19
  %23 = icmp eq i32 %20, 4194304
  %or.cond.i = and i1 %6, %23
  br i1 %or.cond.i, label %26, label %24

24:                                               ; preds = %22
  %25 = and i32 %.034.i, 4194304
  %.not.i = icmp eq i32 %25, 0
  %.str.3..str.2.i = select i1 %.not.i, ptr @.str.3, ptr @.str.2
  %..i = select i1 %.not.i, i64 9, i64 3
  br label %26

26:                                               ; preds = %24, %22, %19
  %.024.i = phi ptr [ @.str, %19 ], [ @.str.1, %22 ], [ %.str.3..str.2.i, %24 ]
  %.0.i = phi i64 [ 3, %19 ], [ 8, %22 ], [ %..i, %24 ]
  %27 = ptrtoint ptr %1 to i64
  %28 = ptrtoint ptr %.025.i to i64
  %29 = sub i64 %27, %28
  %30 = icmp slt i64 %29, %.0.i
  br i1 %30, label %33, label %31

31:                                               ; preds = %26
  tail call void @llvm.memcpy.p0.p0.i64(ptr noundef nonnull align 1 dereferenceable(1) %.025.i, ptr noundef nonnull align 1 dereferenceable(1) %.024.i, i64 %.0.i, i1 false)
  %32 = getelementptr inbounds nuw i8, ptr %.025.i, i64 %.0.i
  br label %33

33:                                               ; preds = %31, %26
  %.sroa.0.1.i = phi ptr [ %32, %31 ], [ %1, %26 ]
  %.sroa.6.1.i = phi i32 [ 0, %31 ], [ 75, %26 ]
  %34 = insertvalue { ptr, i32 } poison, ptr %.sroa.0.1.i, 0
  %35 = insertvalue { ptr, i32 } %34, i32 %.sroa.6.1.i, 1
  br label %_ZNSt3__118_Floating_to_charsB8ne210000ILNS_27_Floating_to_chars_overloadE1EfEENS_15to_chars_resultEPcS3_T0_NS_12chars_formatEi.exit

36:                                               ; preds = %16
  %37 = icmp eq i32 %3, 4
  br i1 %37, label %38, label %40

38:                                               ; preds = %36
  %39 = tail call { ptr, i32 } @_ZNSt3__131_Floating_to_chars_hex_shortestB8ne210000IfEENS_15to_chars_resultEPcS2_T_(ptr noundef %.025.i, ptr noundef %1, float noundef %.035.i) #19
  br label %_ZNSt3__118_Floating_to_charsB8ne210000ILNS_27_Floating_to_chars_overloadE1EfEENS_15to_chars_resultEPcS3_T0_NS_12chars_formatEi.exit

40:                                               ; preds = %36
  %41 = invoke { ptr, i32 } @_ZNSt3__116__f2s_buffered_nB8ne210000EPcS0_fNS_12chars_formatE(ptr noundef %.025.i, ptr noundef %1, float noundef %.035.i, i32 noundef %3)
          to label %_ZNSt3__118_Floating_to_charsB8ne210000ILNS_27_Floating_to_chars_overloadE1EfEENS_15to_chars_resultEPcS3_T0_NS_12chars_formatEi.exit unwind label %42

42:                                               ; preds = %40
  %43 = landingpad { ptr, i32 }
          catch ptr null
  %44 = extractvalue { ptr, i32 } %43, 0
  tail call void @__clang_call_terminate(ptr %44) #20
  unreachable

_ZNSt3__118_Floating_to_charsB8ne210000ILNS_27_Floating_to_chars_overloadE1EfEENS_15to_chars_resultEPcS3_T0_NS_12chars_formatEi.exit: ; preds = %9, %33, %38, %40
  %.fca.1.insert.merged.i = phi { ptr, i32 } [ %11, %9 ], [ %35, %33 ], [ %39, %38 ], [ %41, %40 ]
  ret { ptr, i32 } %.fca.1.insert.merged.i
}